; Function Attrs: mustprogress uwtable
define dso_local noundef ptr @_ZN4Luau15RefinementArena11disjunctionEPNS_7VariantIJNS_8VariadicENS_8NegationENS_11ConjunctionENS_11DisjunctionENS_11EquivalenceENS_11PropositionEEEES9_(ptr noundef nonnull align 8 dereferenceable(40) %0, ptr noundef %1, ptr noundef %2) local_unnamed_addr #0 align 2 {
  %4 = icmp ne ptr %1, null
  %5 = icmp ne ptr %2, null
  %or.cond = or i1 %4, %5
  br i1 %or.cond, label %6, label %20

6:                                                ; preds = %3
  %7 = getelementptr inbounds nuw i8, ptr %0, i64 32
  %8 = load i64, ptr %7, align 8
  %9 = icmp ugt i64 %8, 1023
  br i1 %9, label %10, label %_ZN4Luau14TypedAllocatorINS_7VariantIJNS_8VariadicENS_8NegationENS_11ConjunctionENS_11DisjunctionENS_11EquivalenceENS_11PropositionEEEEE8allocateIJS5_EEEPS8_DpOT_.exit

10:                                               ; preds = %6
  tail call void @_ZN4Luau14TypedAllocatorINS_7VariantIJNS_8VariadicENS_8NegationENS_11ConjunctionENS_11DisjunctionENS_11EquivalenceENS_11PropositionEEEEE11appendBlockEv(ptr noundef nonnull align 8 dereferenceable(40) %0)
  %.pre.i = load i64, ptr %7, align 8
  br label %_ZN4Luau14TypedAllocatorINS_7VariantIJNS_8VariadicENS_8NegationENS_11ConjunctionENS_11DisjunctionENS_11EquivalenceENS_11PropositionEEEEE8allocateIJS5_EEEPS8_DpOT_.exit

_ZN4Luau14TypedAllocatorINS_7VariantIJNS_8VariadicENS_8NegationENS_11ConjunctionENS_11DisjunctionENS_11EquivalenceENS_11PropositionEEEEE8allocateIJS5_EEEPS8_DpOT_.exit: ; preds = %6, %10
  %11 = phi i64 [ %.pre.i, %10 ], [ %8, %6 ]
  %12 = getelementptr inbounds nuw i8, ptr %0, i64 16
  %13 = load ptr, ptr %12, align 8
  %14 = getelementptr inbounds i8, ptr %13, i64 -8
  %15 = load ptr, ptr %14, align 8
  %16 = getelementptr inbounds %"class.Luau::Variant", ptr %15, i64 %11
  store i32 3, ptr %16, align 8
  %17 = getelementptr inbounds nuw i8, ptr %16, i64 8
  store ptr %1, ptr %17, align 8
  %.sroa.2.0..sroa_idx = getelementptr inbounds nuw i8, ptr %16, i64 16
  store ptr %2, ptr %.sroa.2.0..sroa_idx, align 8
  %18 = load i64, ptr %7, align 8
  %19 = add i64 %18, 1
  store i64 %19, ptr %7, align 8
  br label %20

20:                                               ; preds = %3, %_ZN4Luau14TypedAllocatorINS_7VariantIJNS_8VariadicENS_8NegationENS_11ConjunctionENS_11DisjunctionENS_11EquivalenceENS_11PropositionEEEEE8allocateIJS5_EEEPS8_DpOT_.exit
  %.0 = phi ptr [ %16, %_ZN4Luau14TypedAllocatorINS_7VariantIJNS_8VariadicENS_8NegationENS_11ConjunctionENS_11DisjunctionENS_11EquivalenceENS_11PropositionEEEEE8allocateIJS5_EEEPS8_DpOT_.exit ], [ null, %3 ]
  ret ptr %.0
}